; Function Attrs: mustprogress nounwind uwtable
define hidden noundef ptr @_ZNK8CallInfo15selected_methodEv(ptr nocapture noundef nonnull readonly align 8 dereferenceable(64) %0) local_unnamed_addr #0 align 2 {
  %2 = load i8, ptr @_ZN11JvmtiExport31_can_hotswap_or_post_breakpointE, align 1
  %3 = trunc i8 %2 to i1
  %4 = getelementptr inbounds i8, ptr %0, i64 24
  %5 = load ptr, ptr %4, align 8
  br i1 %3, label %6, label %._crit_edge

6:                                                ; preds = %1
  %7 = getelementptr inbounds i8, ptr %5, i64 48
  %8 = load i32, ptr %7, align 4
  %9 = and i32 %8, 4
  %.not = icmp eq i32 %9, 0
  br i1 %.not, label %._crit_edge, label %10

10:                                               ; preds = %6
  %11 = getelementptr inbounds i8, ptr %5, i64 8
  %12 = load ptr, ptr %11, align 8
  %13 = getelementptr inbounds i8, ptr %12, i64 8
  %14 = load ptr, ptr %13, align 8
  %15 = getelementptr inbounds i8, ptr %14, i64 24
  %16 = load ptr, ptr %15, align 8
  %17 = getelementptr inbounds i8, ptr %12, i64 50
  %18 = load i16, ptr %17, align 2
  %19 = zext i16 %18 to i32
  %20 = tail call noundef ptr @_ZN13InstanceKlass17method_with_idnumEi(ptr noundef nonnull align 8 dereferenceable(464) %16, i32 noundef %19) #10
  br label %._crit_edge

._crit_edge:                                      ; preds = %1, %6, %10
  %.0 = phi ptr [ %20, %10 ], [ %5, %6 ], [ %5, %1 ]
  ret ptr %.0
}